; Function Attrs: nounwind sspstrong uwtable
define internal i64 @rb_f_string(i64 %0, i64 noundef %1) #2 {
  %3 = tail call i64 @rb_check_string_type(i64 noundef %1) #23
  %4 = icmp eq i64 %3, 4
  br i1 %4, label %5, label %rb_String.exit

5:                                                ; preds = %2
  %6 = tail call i64 @rb_convert_type_with_id(i64 noundef %1, i32 noundef 5, ptr noundef nonnull @.str.22, i64 noundef 3361)
  br label %rb_String.exit

rb_String.exit:                                   ; preds = %2, %5
  %.0.i = phi i64 [ %6, %5 ], [ %3, %2 ]
  ret i64 %.0.i
}